target datalayout = "e-m:e-p270:32:32-p271:32:32-p272:64:64-i64:64-i128:128-f80:128-n8:16:32:64-S128"
target triple = "x86_64-pc-linux-gnu"

; Function Attrs: nounwind sspstrong memory(argmem: readwrite, inaccessiblemem: readwrite) uwtable
define dso_local i64 @ruby_scan_oct(ptr noundef nonnull %0, i64 noundef %1, ptr noundef nonnull %2) #0 {
  %4 = alloca ptr, align 8
  %5 = alloca i64, align 8
  %6 = alloca ptr, align 8
  %7 = alloca ptr, align 8
  %8 = alloca i64, align 8
  %9 = alloca i64, align 8
  store ptr %0, ptr %4, align 8, !tbaa !7
  store i64 %1, ptr %5, align 8, !tbaa !12
  store ptr %2, ptr %6, align 8, !tbaa !14
  call void @llvm.lifetime.start.p0(i64 8, ptr %7) #16
  %10 = load ptr, ptr %4, align 8, !tbaa !7
  store ptr %10, ptr %7, align 8, !tbaa !7
  call void @llvm.lifetime.start.p0(i64 8, ptr %8) #16
  store i64 0, ptr %8, align 8, !tbaa !12
  call void @llvm.lifetime.start.p0(i64 8, ptr %9) #16
  store i64 0, ptr %9, align 8, !tbaa !12
  br label %11

11:                                               ; preds = %39, %3
  %12 = load i64, ptr %9, align 8, !tbaa !12
  %13 = load i64, ptr %5, align 8, !tbaa !12
  %14 = icmp ult i64 %12, %13
  br i1 %14, label %15, label %42

15:                                               ; preds = %11
  %16 = load ptr, ptr %7, align 8, !tbaa !7
  %17 = getelementptr i8, ptr %16, i64 0
  %18 = load i8, ptr %17, align 1, !tbaa !16
  %19 = sext i8 %18 to i32
  %20 = icmp slt i32 %19, 48
  br i1 %20, label %27, label %21

21:                                               ; preds = %15
  %22 = load ptr, ptr %7, align 8, !tbaa !7
  %23 = getelementptr i8, ptr %22, i64 0
  %24 = load i8, ptr %23, align 1, !tbaa !16
  %25 = sext i8 %24 to i32
  %26 = icmp slt i32 55, %25
  br i1 %26, label %27, label %28

27:                                               ; preds = %21, %15
  br label %42

28:                                               ; preds = %21
  %29 = load i64, ptr %8, align 8, !tbaa !12
  %30 = shl i64 %29, 3
  store i64 %30, ptr %8, align 8, !tbaa !12
  %31 = load ptr, ptr %7, align 8, !tbaa !7
  %32 = getelementptr i8, ptr %31, i32 1
  store ptr %32, ptr %7, align 8, !tbaa !7
  %33 = load i8, ptr %31, align 1, !tbaa !16
  %34 = sext i8 %33 to i32
  %35 = sub i32 %34, 48
  %36 = sext i32 %35 to i64
  %37 = load i64, ptr %8, align 8, !tbaa !12
  %38 = or i64 %37, %36
  store i64 %38, ptr %8, align 8, !tbaa !12
  br label %39

39:                                               ; preds = %28
  %40 = load i64, ptr %9, align 8, !tbaa !12
  %41 = add i64 %40, 1
  store i64 %41, ptr %9, align 8, !tbaa !12
  br label %11, !llvm.loop !17

42:                                               ; preds = %27, %11
  %43 = load ptr, ptr %7, align 8, !tbaa !7
  %44 = load ptr, ptr %4, align 8, !tbaa !7
  %45 = ptrtoint ptr %43 to i64
  %46 = ptrtoint ptr %44 to i64
  %47 = sub i64 %45, %46
  %48 = load ptr, ptr %6, align 8, !tbaa !14
  store i64 %47, ptr %48, align 8, !tbaa !12
  %49 = load i64, ptr %8, align 8, !tbaa !12
  call void @llvm.lifetime.end.p0(i64 8, ptr %9) #16
  call void @llvm.lifetime.end.p0(i64 8, ptr %8) #16
  call void @llvm.lifetime.end.p0(i64 8, ptr %7) #16
  ret i64 %49
}