; Function Attrs: nofree norecurse nosync nounwind sspstrong memory(argmem: readwrite) uwtable
define dso_local i64 @ruby_scan_oct(ptr noundef nonnull %0, i64 noundef %1, ptr noundef nonnull writeonly captures(none) %2) local_unnamed_addr #0 {
  %.not = icmp eq i64 %1, 0
  br i1 %.not, label %._crit_edge, label %.lr.ph.preheader

.lr.ph.preheader:                                 ; preds = %3
  %scevgep = getelementptr i8, ptr %0, i64 %1
  br label %.lr.ph

.lr.ph:                                           ; preds = %.lr.ph.preheader, %6
  %.017 = phi i64 [ %11, %6 ], [ 0, %.lr.ph.preheader ]
  %.01216 = phi i64 [ %10, %6 ], [ 0, %.lr.ph.preheader ]
  %.01315 = phi ptr [ %8, %6 ], [ %0, %.lr.ph.preheader ]
  %4 = load i8, ptr %.01315, align 1, !tbaa !7
  %5 = add i8 %4, -56
  %or.cond = icmp ult i8 %5, -8
  br i1 %or.cond, label %._crit_edge, label %6

6:                                                ; preds = %.lr.ph
  %7 = shl i64 %.01216, 3
  %8 = getelementptr i8, ptr %.01315, i64 1
  %narrow = add nsw i8 %4, -48
  %9 = zext nneg i8 %narrow to i64
  %10 = or disjoint i64 %7, %9
  %11 = add nuw i64 %.017, 1
  %exitcond.not = icmp eq i64 %11, %1
  br i1 %exitcond.not, label %._crit_edge, label %.lr.ph, !llvm.loop !10

._crit_edge:                                      ; preds = %6, %.lr.ph, %3
  %.013.lcssa = phi ptr [ %0, %3 ], [ %.01315, %.lr.ph ], [ %scevgep, %6 ]
  %.012.lcssa = phi i64 [ 0, %3 ], [ %.01216, %.lr.ph ], [ %10, %6 ]
  %12 = ptrtoint ptr %.013.lcssa to i64
  %13 = ptrtoint ptr %0 to i64
  %14 = sub i64 %12, %13
  store i64 %14, ptr %2, align 8, !tbaa !12
  ret i64 %.012.lcssa
}